target datalayout = "e-m:e-p270:32:32-p271:32:32-p272:64:64-i64:64-i128:128-f80:128-n8:16:32:64-S128"
target triple = "x86_64-pc-linux-gnu"

%"class.gmx::SimulationSignaller" = type { ptr, ptr, ptr, i8, i8, %"struct.std::array" }
%"struct.std::array" = type { [3 x float] }
%struct.t_commrec = type <{ i8, [3 x i8], i32, i32, i32, i32, [4 x i8], ptr, ptr, i32, [4 x i8], ptr, i32, i32, %struct.gmx_nodecomm_t, %"class.std::unique_ptr", %"class.std::unique_ptr.3", ptr, ptr, i32, [4 x i8] }>
%struct.gmx_nodecomm_t = type { i8, ptr, i32, ptr }
%"class.std::unique_ptr" = type { %"struct.std::__uniq_ptr_data" }
%"struct.std::__uniq_ptr_data" = type { %"class.std::__uniq_ptr_impl" }
%"class.std::__uniq_ptr_impl" = type { %"class.std::tuple" }
%"class.std::tuple" = type { %"struct.std::_Tuple_impl" }
%"struct.std::_Tuple_impl" = type { %"struct.std::_Head_base.2" }
%"struct.std::_Head_base.2" = type { ptr }
%"class.std::unique_ptr.3" = type { %"struct.std::__uniq_ptr_data.4" }
%"struct.std::__uniq_ptr_data.4" = type { %"class.std::__uniq_ptr_impl.5" }
%"class.std::__uniq_ptr_impl.5" = type { %"class.std::tuple.6" }
%"class.std::tuple.6" = type { %"struct.std::_Tuple_impl.7" }
%"struct.std::_Tuple_impl.7" = type { %"struct.std::_Head_base.10" }
%"struct.std::_Head_base.10" = type { ptr }

; Function Attrs: mustprogress nounwind uwtable
define linkonce_odr noundef ptr @_ZNSt14__array_traitsIfLm3EE6_S_ptrERA3_Kf(ptr noundef nonnull align 4 dereferenceable(12) %0) #0 comdat align 2 {
  %2 = alloca ptr, align 8
  store ptr %0, ptr %2, align 8, !tbaa !28
  %3 = load ptr, ptr %2, align 8, !tbaa !28
  %4 = getelementptr inbounds [3 x float], ptr %3, i64 0, i64 0
  ret ptr %4
}

; Function Attrs: inlinehint mustprogress nounwind uwtable
define internal noundef zeroext i1 @_ZL18haveDDAtomOrderingRK9t_commrec(ptr noundef nonnull align 8 dereferenceable(132) %0) #3 {
  %2 = alloca ptr, align 8
  store ptr %0, ptr %2, align 8, !tbaa !11
  %3 = load ptr, ptr %2, align 8, !tbaa !11
  %4 = getelementptr inbounds nuw %struct.t_commrec, ptr %3, i32 0, i32 17
  %5 = load ptr, ptr %4, align 8, !tbaa !66
  %6 = icmp ne ptr %5, null
  ret i1 %6
}

; Function Attrs: mustprogress nounwind willreturn memory(none) uwtable
define linkonce_odr noundef ptr @_ZNSt5arrayIfLm3EE4dataEv(ptr noundef nonnull align 4 dereferenceable(12) %0) #4 comdat align 2 {
  %2 = alloca ptr, align 8
  store ptr %0, ptr %2, align 8, !tbaa !34
  %3 = load ptr, ptr %2, align 8
  %4 = getelementptr inbounds nuw %"struct.std::array", ptr %3, i32 0, i32 0
  %5 = call noundef ptr @_ZNSt14__array_traitsIfLm3EE6_S_ptrERA3_Kf(ptr noundef nonnull align 4 dereferenceable(12) %4) #8
  ret ptr %5
}

; Function Attrs: mustprogress uwtable
define void @_ZN3gmx19SimulationSignaller14signalInterSimEv(ptr noundef nonnull align 8 dereferenceable(40) %0) #2 align 2 {
  %2 = alloca ptr, align 8
  store ptr %0, ptr %2, align 8, !tbaa !4
  %3 = load ptr, ptr %2, align 8
  %4 = getelementptr inbounds nuw %"class.gmx::SimulationSignaller", ptr %3, i32 0, i32 3
  %5 = load i8, ptr %4, align 8, !tbaa !24, !range !22, !noundef !23
  %6 = trunc i8 %5 to i1
  br i1 %6, label %8, label %7

7:                                                ; preds = %1
  br label %36

8:                                                ; preds = %1
  %9 = getelementptr inbounds nuw %"class.gmx::SimulationSignaller", ptr %3, i32 0, i32 1
  %10 = load ptr, ptr %9, align 8, !tbaa !20
  %11 = getelementptr inbounds nuw %struct.t_commrec, ptr %10, i32 0, i32 13
  %12 = load i32, ptr %11, align 4, !tbaa !45
  %13 = icmp eq i32 %12, 0
  br i1 %13, label %20, label %14

14:                                               ; preds = %8
  %15 = getelementptr inbounds nuw %"class.gmx::SimulationSignaller", ptr %3, i32 0, i32 1
  %16 = load ptr, ptr %15, align 8, !tbaa !20
  %17 = getelementptr inbounds nuw %struct.t_commrec, ptr %16, i32 0, i32 12
  %18 = load i32, ptr %17, align 8, !tbaa !64
  %19 = icmp sgt i32 %18, 1
  br i1 %19, label %25, label %20

20:                                               ; preds = %14, %8
  %21 = getelementptr inbounds nuw %"class.gmx::SimulationSignaller", ptr %3, i32 0, i32 5
  %22 = call noundef ptr @_ZNSt5arrayIfLm3EE4dataEv(ptr noundef nonnull align 4 dereferenceable(12) %21) #7
  %23 = getelementptr inbounds nuw %"class.gmx::SimulationSignaller", ptr %3, i32 0, i32 2
  %24 = load ptr, ptr %23, align 8, !tbaa !21
  call void @_Z12gmx_sumf_simiPfPK14gmx_multisim_t(i32 noundef 3, ptr noundef %22, ptr noundef %24)
  br label %25

25:                                               ; preds = %20, %14
  %26 = getelementptr inbounds nuw %"class.gmx::SimulationSignaller", ptr %3, i32 0, i32 1
  %27 = load ptr, ptr %26, align 8, !tbaa !20
  %28 = call noundef zeroext i1 @_ZL18haveDDAtomOrderingRK9t_commrec(ptr noundef nonnull align 8 dereferenceable(132) %27)
  br i1 %28, label %29, label %36

29:                                               ; preds = %25
  %30 = getelementptr inbounds nuw %"class.gmx::SimulationSignaller", ptr %3, i32 0, i32 5
  %31 = call noundef ptr @_ZNSt5arrayIfLm3EE4dataEv(ptr noundef nonnull align 4 dereferenceable(12) %30) #7
  %32 = getelementptr inbounds nuw %"class.gmx::SimulationSignaller", ptr %3, i32 0, i32 1
  %33 = load ptr, ptr %32, align 8, !tbaa !20
  %34 = getelementptr inbounds nuw %struct.t_commrec, ptr %33, i32 0, i32 8
  %35 = load ptr, ptr %34, align 8, !tbaa !65
  call void @_Z9gmx_bcastmPvP10tmpi_comm_(i64 noundef 12, ptr noundef %31, ptr noundef %35)
  br label %36

36:                                               ; preds = %7, %29, %25
  ret void
}