; Function Attrs: mustprogress uwtable
define void @_ZN3gmx19SimulationSignaller14signalInterSimEv(ptr noundef nonnull align 8 dereferenceable(40) %0) local_unnamed_addr #3 align 2 {
  %2 = getelementptr inbounds nuw i8, ptr %0, i64 24
  %3 = load i8, ptr %2, align 8, !tbaa !16, !range !18, !noundef !19
  %4 = trunc nuw i8 %3 to i1
  br i1 %4, label %5, label %26

5:                                                ; preds = %1
  %6 = getelementptr inbounds nuw i8, ptr %0, i64 8
  %7 = load ptr, ptr %6, align 8, !tbaa !14
  %8 = getelementptr inbounds nuw i8, ptr %7, i64 60
  %9 = load i32, ptr %8, align 4, !tbaa !26
  %10 = icmp eq i32 %9, 0
  br i1 %10, label %15, label %11

11:                                               ; preds = %5
  %12 = getelementptr inbounds nuw i8, ptr %7, i64 56
  %13 = load i32, ptr %12, align 8, !tbaa !45
  %14 = icmp sgt i32 %13, 1
  br i1 %14, label %19, label %15

15:                                               ; preds = %11, %5
  %16 = getelementptr inbounds nuw i8, ptr %0, i64 28
  %17 = getelementptr inbounds nuw i8, ptr %0, i64 16
  %18 = load ptr, ptr %17, align 8, !tbaa !15
  tail call void @_Z12gmx_sumf_simiPfPK14gmx_multisim_t(i32 noundef 3, ptr noundef nonnull %16, ptr noundef %18)
  %.pre = load ptr, ptr %6, align 8, !tbaa !14
  br label %19

19:                                               ; preds = %15, %11
  %20 = phi ptr [ %.pre, %15 ], [ %7, %11 ]
  %21 = getelementptr i8, ptr %20, i64 112
  %.val = load ptr, ptr %21, align 8, !tbaa !46
  %.not = icmp eq ptr %.val, null
  br i1 %.not, label %26, label %22

22:                                               ; preds = %19
  %23 = getelementptr inbounds nuw i8, ptr %0, i64 28
  %24 = getelementptr inbounds nuw i8, ptr %20, i64 32
  %25 = load ptr, ptr %24, align 8, !tbaa !47
  tail call void @_Z9gmx_bcastmPvP10tmpi_comm_(i64 noundef 12, ptr noundef nonnull %23, ptr noundef %25)
  br label %26

26:                                               ; preds = %1, %22, %19
  ret void
}